; Function Attrs: nounwind uwtable
define internal fastcc ptr @_init_l_Int_Linear_norm__eq__var__cert___closed__1() unnamed_addr #1 {
  %1 = load ptr, ptr @l_Int_Linear_Poly_denote_x27_go___closed__1, align 8, !tbaa !11
  %2 = ptrtoint ptr %1 to i64
  %3 = and i64 %2, 1
  %.not.i = icmp eq i64 %3, 0
  br i1 %.not.i, label %17, label %4, !prof !4

4:                                                ; preds = %0
  %5 = shl i64 %2, 31
  %6 = ashr i64 %5, 32
  %7 = sub nsw i64 0, %6
  %8 = add nsw i64 %6, 2147483647
  %9 = icmp ult i64 %8, 4294967296
  br i1 %9, label %10, label %15, !prof !5

10:                                               ; preds = %4
  %11 = shl nsw i64 %7, 1
  %12 = and i64 %11, 8589934590
  %13 = or disjoint i64 %12, 1
  %14 = inttoptr i64 %13 to ptr
  br label %lean_int_neg.exit

15:                                               ; preds = %4
  %16 = tail call ptr @lean_big_int64_to_int(i64 noundef range(i64 -4611686016279904256, 4611686018427387905) %7) #5
  br label %lean_int_neg.exit

17:                                               ; preds = %0
  %18 = tail call ptr @lean_int_big_neg(ptr noundef %1) #5
  br label %lean_int_neg.exit

lean_int_neg.exit:                                ; preds = %10, %15, %17
  %.0.i = phi ptr [ %18, %17 ], [ %14, %10 ], [ %16, %15 ]
  ret ptr %.0.i
}